target datalayout = "e-m:e-p270:32:32-p271:32:32-p272:64:64-i64:64-i128:128-f80:128-n8:16:32:64-S128"
target triple = "x86_64-pc-linux-gnu"

%"class.pxrInternal_v0_24__pxrReserved__::Vt_ArrayBase" = type { %"struct.pxrInternal_v0_24__pxrReserved__::Vt_ShapeData", ptr }
%"struct.pxrInternal_v0_24__pxrReserved__::Vt_ShapeData" = type { i64, [3 x i32] }
%"class.pxrInternal_v0_24__pxrReserved__::VtArray.100" = type { %"class.pxrInternal_v0_24__pxrReserved__::Vt_ArrayBase", ptr }
%"class.pxrInternal_v0_24__pxrReserved__::GfMatrix4d" = type { %"class.pxrInternal_v0_24__pxrReserved__::GfMatrixData.101" }
%"class.pxrInternal_v0_24__pxrReserved__::GfMatrixData.101" = type { [16 x double] }

@.str.77 = private unnamed_addr constant [9 x i8] c"matrix4d\00", align 1

; Function Attrs: mustprogress nounwind uwtable
define linkonce_odr dso_local noundef ptr @_ZN32pxrInternal_v0_24__pxrReserved__12GfMatrixDataIdLi4ELi4EEixEi(ptr noundef nonnull align 8 dereferenceable(128) %0, i32 noundef %1) #5 comdat align 2 {
  %3 = alloca ptr, align 8
  %4 = alloca i32, align 4
  store ptr %0, ptr %3, align 8
  store i32 %1, ptr %4, align 4
  %5 = load ptr, ptr %3, align 8
  %6 = getelementptr inbounds nuw %"class.pxrInternal_v0_24__pxrReserved__::GfMatrixData.101", ptr %5, i32 0, i32 0
  %7 = getelementptr inbounds [16 x double], ptr %6, i64 0, i64 0
  %8 = load i32, ptr %4, align 4
  %9 = mul nsw i32 %8, 4
  %10 = sext i32 %9 to i64
  %11 = getelementptr inbounds double, ptr %7, i64 %10
  ret ptr %11
}

; Function Attrs: mustprogress uwtable
define linkonce_odr dso_local noundef nonnull align 8 dereferenceable(128) ptr @_ZN32pxrInternal_v0_24__pxrReserved__10GfMatrix4d3SetEdddddddddddddddd(ptr noundef nonnull align 8 dereferenceable(128) %0, double noundef %1, double noundef %2, double noundef %3, double noundef %4, double noundef %5, double noundef %6, double noundef %7, double noundef %8, double noundef %9, double noundef %10, double noundef %11, double noundef %12, double noundef %13, double noundef %14, double noundef %15, double noundef %16) #4 comdat align 2 {
  %18 = alloca ptr, align 8
  %19 = alloca double, align 8
  %20 = alloca double, align 8
  %21 = alloca double, align 8
  %22 = alloca double, align 8
  %23 = alloca double, align 8
  %24 = alloca double, align 8
  %25 = alloca double, align 8
  %26 = alloca double, align 8
  %27 = alloca double, align 8
  %28 = alloca double, align 8
  %29 = alloca double, align 8
  %30 = alloca double, align 8
  %31 = alloca double, align 8
  %32 = alloca double, align 8
  %33 = alloca double, align 8
  %34 = alloca double, align 8
  store ptr %0, ptr %18, align 8
  store double %1, ptr %19, align 8
  store double %2, ptr %20, align 8
  store double %3, ptr %21, align 8
  store double %4, ptr %22, align 8
  store double %5, ptr %23, align 8
  store double %6, ptr %24, align 8
  store double %7, ptr %25, align 8
  store double %8, ptr %26, align 8
  store double %9, ptr %27, align 8
  store double %10, ptr %28, align 8
  store double %11, ptr %29, align 8
  store double %12, ptr %30, align 8
  store double %13, ptr %31, align 8
  store double %14, ptr %32, align 8
  store double %15, ptr %33, align 8
  store double %16, ptr %34, align 8
  %35 = load ptr, ptr %18, align 8
  %36 = load double, ptr %19, align 8
  %37 = getelementptr inbounds nuw %"class.pxrInternal_v0_24__pxrReserved__::GfMatrix4d", ptr %35, i32 0, i32 0
  %38 = call noundef ptr @_ZN32pxrInternal_v0_24__pxrReserved__12GfMatrixDataIdLi4ELi4EEixEi(ptr noundef nonnull align 8 dereferenceable(128) %37, i32 noundef 0)
  %39 = getelementptr inbounds double, ptr %38, i64 0
  store double %36, ptr %39, align 8
  %40 = load double, ptr %20, align 8
  %41 = getelementptr inbounds nuw %"class.pxrInternal_v0_24__pxrReserved__::GfMatrix4d", ptr %35, i32 0, i32 0
  %42 = call noundef ptr @_ZN32pxrInternal_v0_24__pxrReserved__12GfMatrixDataIdLi4ELi4EEixEi(ptr noundef nonnull align 8 dereferenceable(128) %41, i32 noundef 0)
  %43 = getelementptr inbounds double, ptr %42, i64 1
  store double %40, ptr %43, align 8
  %44 = load double, ptr %21, align 8
  %45 = getelementptr inbounds nuw %"class.pxrInternal_v0_24__pxrReserved__::GfMatrix4d", ptr %35, i32 0, i32 0
  %46 = call noundef ptr @_ZN32pxrInternal_v0_24__pxrReserved__12GfMatrixDataIdLi4ELi4EEixEi(ptr noundef nonnull align 8 dereferenceable(128) %45, i32 noundef 0)
  %47 = getelementptr inbounds double, ptr %46, i64 2
  store double %44, ptr %47, align 8
  %48 = load double, ptr %22, align 8
  %49 = getelementptr inbounds nuw %"class.pxrInternal_v0_24__pxrReserved__::GfMatrix4d", ptr %35, i32 0, i32 0
  %50 = call noundef ptr @_ZN32pxrInternal_v0_24__pxrReserved__12GfMatrixDataIdLi4ELi4EEixEi(ptr noundef nonnull align 8 dereferenceable(128) %49, i32 noundef 0)
  %51 = getelementptr inbounds double, ptr %50, i64 3
  store double %48, ptr %51, align 8
  %52 = load double, ptr %23, align 8
  %53 = getelementptr inbounds nuw %"class.pxrInternal_v0_24__pxrReserved__::GfMatrix4d", ptr %35, i32 0, i32 0
  %54 = call noundef ptr @_ZN32pxrInternal_v0_24__pxrReserved__12GfMatrixDataIdLi4ELi4EEixEi(ptr noundef nonnull align 8 dereferenceable(128) %53, i32 noundef 1)
  %55 = getelementptr inbounds double, ptr %54, i64 0
  store double %52, ptr %55, align 8
  %56 = load double, ptr %24, align 8
  %57 = getelementptr inbounds nuw %"class.pxrInternal_v0_24__pxrReserved__::GfMatrix4d", ptr %35, i32 0, i32 0
  %58 = call noundef ptr @_ZN32pxrInternal_v0_24__pxrReserved__12GfMatrixDataIdLi4ELi4EEixEi(ptr noundef nonnull align 8 dereferenceable(128) %57, i32 noundef 1)
  %59 = getelementptr inbounds double, ptr %58, i64 1
  store double %56, ptr %59, align 8
  %60 = load double, ptr %25, align 8
  %61 = getelementptr inbounds nuw %"class.pxrInternal_v0_24__pxrReserved__::GfMatrix4d", ptr %35, i32 0, i32 0
  %62 = call noundef ptr @_ZN32pxrInternal_v0_24__pxrReserved__12GfMatrixDataIdLi4ELi4EEixEi(ptr noundef nonnull align 8 dereferenceable(128) %61, i32 noundef 1)
  %63 = getelementptr inbounds double, ptr %62, i64 2
  store double %60, ptr %63, align 8
  %64 = load double, ptr %26, align 8
  %65 = getelementptr inbounds nuw %"class.pxrInternal_v0_24__pxrReserved__::GfMatrix4d", ptr %35, i32 0, i32 0
  %66 = call noundef ptr @_ZN32pxrInternal_v0_24__pxrReserved__12GfMatrixDataIdLi4ELi4EEixEi(ptr noundef nonnull align 8 dereferenceable(128) %65, i32 noundef 1)
  %67 = getelementptr inbounds double, ptr %66, i64 3
  store double %64, ptr %67, align 8
  %68 = load double, ptr %27, align 8
  %69 = getelementptr inbounds nuw %"class.pxrInternal_v0_24__pxrReserved__::GfMatrix4d", ptr %35, i32 0, i32 0
  %70 = call noundef ptr @_ZN32pxrInternal_v0_24__pxrReserved__12GfMatrixDataIdLi4ELi4EEixEi(ptr noundef nonnull align 8 dereferenceable(128) %69, i32 noundef 2)
  %71 = getelementptr inbounds double, ptr %70, i64 0
  store double %68, ptr %71, align 8
  %72 = load double, ptr %28, align 8
  %73 = getelementptr inbounds nuw %"class.pxrInternal_v0_24__pxrReserved__::GfMatrix4d", ptr %35, i32 0, i32 0
  %74 = call noundef ptr @_ZN32pxrInternal_v0_24__pxrReserved__12GfMatrixDataIdLi4ELi4EEixEi(ptr noundef nonnull align 8 dereferenceable(128) %73, i32 noundef 2)
  %75 = getelementptr inbounds double, ptr %74, i64 1
  store double %72, ptr %75, align 8
  %76 = load double, ptr %29, align 8
  %77 = getelementptr inbounds nuw %"class.pxrInternal_v0_24__pxrReserved__::GfMatrix4d", ptr %35, i32 0, i32 0
  %78 = call noundef ptr @_ZN32pxrInternal_v0_24__pxrReserved__12GfMatrixDataIdLi4ELi4EEixEi(ptr noundef nonnull align 8 dereferenceable(128) %77, i32 noundef 2)
  %79 = getelementptr inbounds double, ptr %78, i64 2
  store double %76, ptr %79, align 8
  %80 = load double, ptr %30, align 8
  %81 = getelementptr inbounds nuw %"class.pxrInternal_v0_24__pxrReserved__::GfMatrix4d", ptr %35, i32 0, i32 0
  %82 = call noundef ptr @_ZN32pxrInternal_v0_24__pxrReserved__12GfMatrixDataIdLi4ELi4EEixEi(ptr noundef nonnull align 8 dereferenceable(128) %81, i32 noundef 2)
  %83 = getelementptr inbounds double, ptr %82, i64 3
  store double %80, ptr %83, align 8
  %84 = load double, ptr %31, align 8
  %85 = getelementptr inbounds nuw %"class.pxrInternal_v0_24__pxrReserved__::GfMatrix4d", ptr %35, i32 0, i32 0
  %86 = call noundef ptr @_ZN32pxrInternal_v0_24__pxrReserved__12GfMatrixDataIdLi4ELi4EEixEi(ptr noundef nonnull align 8 dereferenceable(128) %85, i32 noundef 3)
  %87 = getelementptr inbounds double, ptr %86, i64 0
  store double %84, ptr %87, align 8
  %88 = load double, ptr %32, align 8
  %89 = getelementptr inbounds nuw %"class.pxrInternal_v0_24__pxrReserved__::GfMatrix4d", ptr %35, i32 0, i32 0
  %90 = call noundef ptr @_ZN32pxrInternal_v0_24__pxrReserved__12GfMatrixDataIdLi4ELi4EEixEi(ptr noundef nonnull align 8 dereferenceable(128) %89, i32 noundef 3)
  %91 = getelementptr inbounds double, ptr %90, i64 1
  store double %88, ptr %91, align 8
  %92 = load double, ptr %33, align 8
  %93 = getelementptr inbounds nuw %"class.pxrInternal_v0_24__pxrReserved__::GfMatrix4d", ptr %35, i32 0, i32 0
  %94 = call noundef ptr @_ZN32pxrInternal_v0_24__pxrReserved__12GfMatrixDataIdLi4ELi4EEixEi(ptr noundef nonnull align 8 dereferenceable(128) %93, i32 noundef 3)
  %95 = getelementptr inbounds double, ptr %94, i64 2
  store double %92, ptr %95, align 8
  %96 = load double, ptr %34, align 8
  %97 = getelementptr inbounds nuw %"class.pxrInternal_v0_24__pxrReserved__::GfMatrix4d", ptr %35, i32 0, i32 0
  %98 = call noundef ptr @_ZN32pxrInternal_v0_24__pxrReserved__12GfMatrixDataIdLi4ELi4EEixEi(ptr noundef nonnull align 8 dereferenceable(128) %97, i32 noundef 3)
  %99 = getelementptr inbounds double, ptr %98, i64 3
  store double %96, ptr %99, align 8
  ret ptr %35
}

; Function Attrs: mustprogress uwtable
define linkonce_odr dso_local void @_ZN32pxrInternal_v0_24__pxrReserved__10GfMatrix4dC2Edddddddddddddddd(ptr noundef nonnull align 8 dereferenceable(128) %0, double noundef %1, double noundef %2, double noundef %3, double noundef %4, double noundef %5, double noundef %6, double noundef %7, double noundef %8, double noundef %9, double noundef %10, double noundef %11, double noundef %12, double noundef %13, double noundef %14, double noundef %15, double noundef %16) unnamed_addr #4 comdat align 2 {
  %18 = alloca ptr, align 8
  %19 = alloca double, align 8
  %20 = alloca double, align 8
  %21 = alloca double, align 8
  %22 = alloca double, align 8
  %23 = alloca double, align 8
  %24 = alloca double, align 8
  %25 = alloca double, align 8
  %26 = alloca double, align 8
  %27 = alloca double, align 8
  %28 = alloca double, align 8
  %29 = alloca double, align 8
  %30 = alloca double, align 8
  %31 = alloca double, align 8
  %32 = alloca double, align 8
  %33 = alloca double, align 8
  %34 = alloca double, align 8
  store ptr %0, ptr %18, align 8
  store double %1, ptr %19, align 8
  store double %2, ptr %20, align 8
  store double %3, ptr %21, align 8
  store double %4, ptr %22, align 8
  store double %5, ptr %23, align 8
  store double %6, ptr %24, align 8
  store double %7, ptr %25, align 8
  store double %8, ptr %26, align 8
  store double %9, ptr %27, align 8
  store double %10, ptr %28, align 8
  store double %11, ptr %29, align 8
  store double %12, ptr %30, align 8
  store double %13, ptr %31, align 8
  store double %14, ptr %32, align 8
  store double %15, ptr %33, align 8
  store double %16, ptr %34, align 8
  %35 = load ptr, ptr %18, align 8
  %36 = load double, ptr %19, align 8
  %37 = load double, ptr %20, align 8
  %38 = load double, ptr %21, align 8
  %39 = load double, ptr %22, align 8
  %40 = load double, ptr %23, align 8
  %41 = load double, ptr %24, align 8
  %42 = load double, ptr %25, align 8
  %43 = load double, ptr %26, align 8
  %44 = load double, ptr %27, align 8
  %45 = load double, ptr %28, align 8
  %46 = load double, ptr %29, align 8
  %47 = load double, ptr %30, align 8
  %48 = load double, ptr %31, align 8
  %49 = load double, ptr %32, align 8
  %50 = load double, ptr %33, align 8
  %51 = load double, ptr %34, align 8
  %52 = call noundef nonnull align 8 dereferenceable(128) ptr @_ZN32pxrInternal_v0_24__pxrReserved__10GfMatrix4d3SetEdddddddddddddddd(ptr noundef nonnull align 8 dereferenceable(128) %35, double noundef %36, double noundef %37, double noundef %38, double noundef %39, double noundef %40, double noundef %41, double noundef %42, double noundef %43, double noundef %44, double noundef %45, double noundef %46, double noundef %47, double noundef %48, double noundef %49, double noundef %50, double noundef %51)
  ret void
}

; Function Attrs: mustprogress uwtable
define dso_local void @_Z7GetInfoIN32pxrInternal_v0_24__pxrReserved__10GfMatrix4dEEvPNS0_7VtArrayIT_EEPNSt7__cxx1112basic_stringIcSt11char_traitsIcESaIcEEE(ptr noundef %0, ptr noundef %1) #4 personality ptr @__gxx_personality_v0 {
  %3 = alloca ptr, align 8
  %4 = alloca ptr, align 8
  %5 = alloca %"class.pxrInternal_v0_24__pxrReserved__::VtArray.100", align 8
  %6 = alloca ptr, align 8
  %7 = alloca i32, align 4
  %8 = alloca %"class.pxrInternal_v0_24__pxrReserved__::GfMatrix4d", align 8
  %9 = alloca %"class.pxrInternal_v0_24__pxrReserved__::GfMatrix4d", align 8
  %10 = alloca %"class.pxrInternal_v0_24__pxrReserved__::GfMatrix4d", align 8
  store ptr %0, ptr %3, align 8
  store ptr %1, ptr %4, align 8
  %11 = load ptr, ptr %4, align 8
  %12 = call noundef nonnull align 8 dereferenceable(32) ptr @_ZNSt7__cxx1112basic_stringIcSt11char_traitsIcESaIcEEaSEPKc(ptr noundef nonnull align 8 dereferenceable(32) %11, ptr noundef @.str.77)
  call void @_ZN32pxrInternal_v0_24__pxrReserved__7VtArrayINS_10GfMatrix4dEEC1Em(ptr noundef nonnull align 8 dereferenceable(40) %5, i64 noundef 3)
  %13 = load ptr, ptr %3, align 8
  %14 = invoke noundef nonnull align 8 dereferenceable(40) ptr @_ZN32pxrInternal_v0_24__pxrReserved__7VtArrayINS_10GfMatrix4dEEaSEOS2_(ptr noundef nonnull align 8 dereferenceable(40) %13, ptr noundef nonnull align 8 dereferenceable(40) %5)
          to label %15 unwind label %22

15:                                               ; preds = %2
  call void @_ZN32pxrInternal_v0_24__pxrReserved__7VtArrayINS_10GfMatrix4dEED1Ev(ptr noundef nonnull align 8 dereferenceable(40) %5) #3
  call void @_ZN32pxrInternal_v0_24__pxrReserved__10GfMatrix4dC2Edddddddddddddddd(ptr noundef nonnull align 8 dereferenceable(128) %8, double noundef 5.000000e-01, double noundef 1.500000e+00, double noundef 2.500000e+00, double noundef 3.500000e+00, double noundef 4.500000e+00, double noundef 5.500000e+00, double noundef 6.500000e+00, double noundef 7.500000e+00, double noundef 8.500000e+00, double noundef 9.500000e+00, double noundef 1.050000e+01, double noundef 1.150000e+01, double noundef 1.250000e+01, double noundef 1.350000e+01, double noundef 1.450000e+01, double noundef 1.550000e+01)
  %16 = load ptr, ptr %3, align 8
  %17 = call noundef nonnull align 8 dereferenceable(128) ptr @_ZN32pxrInternal_v0_24__pxrReserved__7VtArrayINS_10GfMatrix4dEEixEm(ptr noundef nonnull align 8 dereferenceable(40) %16, i64 noundef 0)
  call void @llvm.memcpy.p0.p0.i64(ptr align 8 %17, ptr align 8 %8, i64 128, i1 false)
  call void @_ZN32pxrInternal_v0_24__pxrReserved__10GfMatrix4dC2Edddddddddddddddd(ptr noundef nonnull align 8 dereferenceable(128) %9, double noundef 1.650000e+01, double noundef 1.750000e+01, double noundef 1.850000e+01, double noundef 1.950000e+01, double noundef 2.050000e+01, double noundef 2.150000e+01, double noundef 2.250000e+01, double noundef 2.350000e+01, double noundef 2.450000e+01, double noundef 2.550000e+01, double noundef 2.650000e+01, double noundef 2.750000e+01, double noundef 2.850000e+01, double noundef 2.950000e+01, double noundef 3.050000e+01, double noundef 3.150000e+01)
  %18 = load ptr, ptr %3, align 8
  %19 = call noundef nonnull align 8 dereferenceable(128) ptr @_ZN32pxrInternal_v0_24__pxrReserved__7VtArrayINS_10GfMatrix4dEEixEm(ptr noundef nonnull align 8 dereferenceable(40) %18, i64 noundef 1)
  call void @llvm.memcpy.p0.p0.i64(ptr align 8 %19, ptr align 8 %9, i64 128, i1 false)
  call void @_ZN32pxrInternal_v0_24__pxrReserved__10GfMatrix4dC2Edddddddddddddddd(ptr noundef nonnull align 8 dereferenceable(128) %10, double noundef 3.250000e+01, double noundef 3.350000e+01, double noundef 3.450000e+01, double noundef 3.550000e+01, double noundef 3.650000e+01, double noundef 3.750000e+01, double noundef 3.850000e+01, double noundef 3.950000e+01, double noundef 4.050000e+01, double noundef 4.150000e+01, double noundef 4.250000e+01, double noundef 4.350000e+01, double noundef 4.450000e+01, double noundef 4.550000e+01, double noundef 4.650000e+01, double noundef 4.750000e+01)
  %20 = load ptr, ptr %3, align 8
  %21 = call noundef nonnull align 8 dereferenceable(128) ptr @_ZN32pxrInternal_v0_24__pxrReserved__7VtArrayINS_10GfMatrix4dEEixEm(ptr noundef nonnull align 8 dereferenceable(40) %20, i64 noundef 2)
  call void @llvm.memcpy.p0.p0.i64(ptr align 8 %21, ptr align 8 %10, i64 128, i1 false)
  ret void

22:                                               ; preds = %2
  %23 = landingpad { ptr, i32 }
          cleanup
  %24 = extractvalue { ptr, i32 } %23, 0
  store ptr %24, ptr %6, align 8
  %25 = extractvalue { ptr, i32 } %23, 1
  store i32 %25, ptr %7, align 4
  call void @_ZN32pxrInternal_v0_24__pxrReserved__7VtArrayINS_10GfMatrix4dEED1Ev(ptr noundef nonnull align 8 dereferenceable(40) %5) #3
  br label %26

26:                                               ; preds = %22
  %27 = load ptr, ptr %6, align 8
  %28 = load i32, ptr %7, align 4
  %29 = insertvalue { ptr, i32 } poison, ptr %27, 0
  %30 = insertvalue { ptr, i32 } %29, i32 %28, 1
  resume { ptr, i32 } %30
}