; Function Attrs: mustprogress uwtable
define dso_local void @_Z7GetInfoIN32pxrInternal_v0_24__pxrReserved__10GfMatrix4dEEvPNS0_7VtArrayIT_EEPNSt7__cxx1112basic_stringIcSt11char_traitsIcESaIcEEE(ptr noundef %0, ptr noundef nonnull %1) local_unnamed_addr #3 personality ptr @__gxx_personality_v0 {
  %3 = alloca %"class.pxrInternal_v0_24__pxrReserved__::VtArray.100", align 8
  %4 = tail call noundef nonnull align 8 dereferenceable(32) ptr @_ZNSt7__cxx1112basic_stringIcSt11char_traitsIcESaIcEEaSEPKc(ptr noundef nonnull align 8 dereferenceable(32) %1, ptr noundef nonnull @.str.77)
  call void @_ZN32pxrInternal_v0_24__pxrReserved__7VtArrayINS_10GfMatrix4dEEC1Em(ptr noundef nonnull align 8 dereferenceable(40) %3, i64 noundef 3)
  %5 = invoke noundef nonnull align 8 dereferenceable(40) ptr @_ZN32pxrInternal_v0_24__pxrReserved__7VtArrayINS_10GfMatrix4dEEaSEOS2_(ptr noundef nonnull align 8 dereferenceable(40) %0, ptr noundef nonnull align 8 dereferenceable(40) %3)
          to label %6 unwind label %10

6:                                                ; preds = %2
  call void @_ZN32pxrInternal_v0_24__pxrReserved__7VtArrayINS_10GfMatrix4dEED1Ev(ptr noundef nonnull align 8 dereferenceable(40) %3) #25
  %7 = call noundef nonnull align 8 dereferenceable(128) ptr @_ZN32pxrInternal_v0_24__pxrReserved__7VtArrayINS_10GfMatrix4dEEixEm(ptr noundef nonnull align 8 dereferenceable(40) %0, i64 noundef 0)
  store double 5.000000e-01, ptr %7, align 8
  %.sroa.223.0..sroa_idx = getelementptr inbounds i8, ptr %7, i64 8
  store double 1.500000e+00, ptr %.sroa.223.0..sroa_idx, align 8
  %.sroa.324.0..sroa_idx = getelementptr inbounds i8, ptr %7, i64 16
  store double 2.500000e+00, ptr %.sroa.324.0..sroa_idx, align 8
  %.sroa.425.0..sroa_idx = getelementptr inbounds i8, ptr %7, i64 24
  store double 3.500000e+00, ptr %.sroa.425.0..sroa_idx, align 8
  %.sroa.526.0..sroa_idx = getelementptr inbounds i8, ptr %7, i64 32
  store double 4.500000e+00, ptr %.sroa.526.0..sroa_idx, align 8
  %.sroa.627.0..sroa_idx = getelementptr inbounds i8, ptr %7, i64 40
  store double 5.500000e+00, ptr %.sroa.627.0..sroa_idx, align 8
  %.sroa.728.0..sroa_idx = getelementptr inbounds i8, ptr %7, i64 48
  store double 6.500000e+00, ptr %.sroa.728.0..sroa_idx, align 8
  %.sroa.829.0..sroa_idx = getelementptr inbounds i8, ptr %7, i64 56
  store double 7.500000e+00, ptr %.sroa.829.0..sroa_idx, align 8
  %.sroa.930.0..sroa_idx = getelementptr inbounds i8, ptr %7, i64 64
  store double 8.500000e+00, ptr %.sroa.930.0..sroa_idx, align 8
  %.sroa.1031.0..sroa_idx = getelementptr inbounds i8, ptr %7, i64 72
  store double 9.500000e+00, ptr %.sroa.1031.0..sroa_idx, align 8
  %.sroa.1132.0..sroa_idx = getelementptr inbounds i8, ptr %7, i64 80
  store double 1.050000e+01, ptr %.sroa.1132.0..sroa_idx, align 8
  %.sroa.1233.0..sroa_idx = getelementptr inbounds i8, ptr %7, i64 88
  store double 1.150000e+01, ptr %.sroa.1233.0..sroa_idx, align 8
  %.sroa.1334.0..sroa_idx = getelementptr inbounds i8, ptr %7, i64 96
  store double 1.250000e+01, ptr %.sroa.1334.0..sroa_idx, align 8
  %.sroa.1435.0..sroa_idx = getelementptr inbounds i8, ptr %7, i64 104
  store double 1.350000e+01, ptr %.sroa.1435.0..sroa_idx, align 8
  %.sroa.1536.0..sroa_idx = getelementptr inbounds i8, ptr %7, i64 112
  store double 1.450000e+01, ptr %.sroa.1536.0..sroa_idx, align 8
  %.sroa.1637.0..sroa_idx = getelementptr inbounds i8, ptr %7, i64 120
  store double 1.550000e+01, ptr %.sroa.1637.0..sroa_idx, align 8
  %8 = call noundef nonnull align 8 dereferenceable(128) ptr @_ZN32pxrInternal_v0_24__pxrReserved__7VtArrayINS_10GfMatrix4dEEixEm(ptr noundef nonnull align 8 dereferenceable(40) %0, i64 noundef 1)
  store double 1.650000e+01, ptr %8, align 8
  %.sroa.27.0..sroa_idx = getelementptr inbounds i8, ptr %8, i64 8
  store double 1.750000e+01, ptr %.sroa.27.0..sroa_idx, align 8
  %.sroa.38.0..sroa_idx = getelementptr inbounds i8, ptr %8, i64 16
  store double 1.850000e+01, ptr %.sroa.38.0..sroa_idx, align 8
  %.sroa.49.0..sroa_idx = getelementptr inbounds i8, ptr %8, i64 24
  store double 1.950000e+01, ptr %.sroa.49.0..sroa_idx, align 8
  %.sroa.510.0..sroa_idx = getelementptr inbounds i8, ptr %8, i64 32
  store double 2.050000e+01, ptr %.sroa.510.0..sroa_idx, align 8
  %.sroa.611.0..sroa_idx = getelementptr inbounds i8, ptr %8, i64 40
  store double 2.150000e+01, ptr %.sroa.611.0..sroa_idx, align 8
  %.sroa.712.0..sroa_idx = getelementptr inbounds i8, ptr %8, i64 48
  store double 2.250000e+01, ptr %.sroa.712.0..sroa_idx, align 8
  %.sroa.813.0..sroa_idx = getelementptr inbounds i8, ptr %8, i64 56
  store double 2.350000e+01, ptr %.sroa.813.0..sroa_idx, align 8
  %.sroa.914.0..sroa_idx = getelementptr inbounds i8, ptr %8, i64 64
  store double 2.450000e+01, ptr %.sroa.914.0..sroa_idx, align 8
  %.sroa.1015.0..sroa_idx = getelementptr inbounds i8, ptr %8, i64 72
  store double 2.550000e+01, ptr %.sroa.1015.0..sroa_idx, align 8
  %.sroa.1116.0..sroa_idx = getelementptr inbounds i8, ptr %8, i64 80
  store double 2.650000e+01, ptr %.sroa.1116.0..sroa_idx, align 8
  %.sroa.1217.0..sroa_idx = getelementptr inbounds i8, ptr %8, i64 88
  store double 2.750000e+01, ptr %.sroa.1217.0..sroa_idx, align 8
  %.sroa.1318.0..sroa_idx = getelementptr inbounds i8, ptr %8, i64 96
  store double 2.850000e+01, ptr %.sroa.1318.0..sroa_idx, align 8
  %.sroa.1419.0..sroa_idx = getelementptr inbounds i8, ptr %8, i64 104
  store double 2.950000e+01, ptr %.sroa.1419.0..sroa_idx, align 8
  %.sroa.1520.0..sroa_idx = getelementptr inbounds i8, ptr %8, i64 112
  store double 3.050000e+01, ptr %.sroa.1520.0..sroa_idx, align 8
  %.sroa.1621.0..sroa_idx = getelementptr inbounds i8, ptr %8, i64 120
  store double 3.150000e+01, ptr %.sroa.1621.0..sroa_idx, align 8
  %9 = call noundef nonnull align 8 dereferenceable(128) ptr @_ZN32pxrInternal_v0_24__pxrReserved__7VtArrayINS_10GfMatrix4dEEixEm(ptr noundef nonnull align 8 dereferenceable(40) %0, i64 noundef 2)
  store double 3.250000e+01, ptr %9, align 8
  %.sroa.2.0..sroa_idx = getelementptr inbounds i8, ptr %9, i64 8
  store double 3.350000e+01, ptr %.sroa.2.0..sroa_idx, align 8
  %.sroa.3.0..sroa_idx = getelementptr inbounds i8, ptr %9, i64 16
  store double 3.450000e+01, ptr %.sroa.3.0..sroa_idx, align 8
  %.sroa.4.0..sroa_idx = getelementptr inbounds i8, ptr %9, i64 24
  store double 3.550000e+01, ptr %.sroa.4.0..sroa_idx, align 8
  %.sroa.5.0..sroa_idx = getelementptr inbounds i8, ptr %9, i64 32
  store double 3.650000e+01, ptr %.sroa.5.0..sroa_idx, align 8
  %.sroa.6.0..sroa_idx = getelementptr inbounds i8, ptr %9, i64 40
  store double 3.750000e+01, ptr %.sroa.6.0..sroa_idx, align 8
  %.sroa.7.0..sroa_idx = getelementptr inbounds i8, ptr %9, i64 48
  store double 3.850000e+01, ptr %.sroa.7.0..sroa_idx, align 8
  %.sroa.8.0..sroa_idx = getelementptr inbounds i8, ptr %9, i64 56
  store double 3.950000e+01, ptr %.sroa.8.0..sroa_idx, align 8
  %.sroa.9.0..sroa_idx = getelementptr inbounds i8, ptr %9, i64 64
  store double 4.050000e+01, ptr %.sroa.9.0..sroa_idx, align 8
  %.sroa.10.0..sroa_idx = getelementptr inbounds i8, ptr %9, i64 72
  store double 4.150000e+01, ptr %.sroa.10.0..sroa_idx, align 8
  %.sroa.11.0..sroa_idx = getelementptr inbounds i8, ptr %9, i64 80
  store double 4.250000e+01, ptr %.sroa.11.0..sroa_idx, align 8
  %.sroa.12.0..sroa_idx = getelementptr inbounds i8, ptr %9, i64 88
  store double 4.350000e+01, ptr %.sroa.12.0..sroa_idx, align 8
  %.sroa.13.0..sroa_idx = getelementptr inbounds i8, ptr %9, i64 96
  store double 4.450000e+01, ptr %.sroa.13.0..sroa_idx, align 8
  %.sroa.14.0..sroa_idx = getelementptr inbounds i8, ptr %9, i64 104
  store double 4.550000e+01, ptr %.sroa.14.0..sroa_idx, align 8
  %.sroa.15.0..sroa_idx = getelementptr inbounds i8, ptr %9, i64 112
  store double 4.650000e+01, ptr %.sroa.15.0..sroa_idx, align 8
  %.sroa.16.0..sroa_idx = getelementptr inbounds i8, ptr %9, i64 120
  store double 4.750000e+01, ptr %.sroa.16.0..sroa_idx, align 8
  ret void

10:                                               ; preds = %2
  %11 = landingpad { ptr, i32 }
          cleanup
  call void @_ZN32pxrInternal_v0_24__pxrReserved__7VtArrayINS_10GfMatrix4dEED1Ev(ptr noundef nonnull align 8 dereferenceable(40) %3) #25
  resume { ptr, i32 } %11
}